target datalayout = "e-m:e-p270:32:32-p271:32:32-p272:64:64-i64:64-i128:128-f80:128-n8:16:32:64-S128"
target triple = "x86_64-pc-linux-gnu"

@.str = private unnamed_addr constant [25 x i8] c"%s/pack/multi-pack-index\00", align 1
@.str.1 = private unnamed_addr constant [7 x i8] c"-%s.%s\00", align 1

; Function Attrs: nounwind uwtable
define dso_local void @get_midx_filename_ext(ptr noundef %0, ptr noundef %1, ptr noundef %2, ptr noundef %3, ptr noundef %4) #0 {
  %6 = alloca ptr, align 8
  %7 = alloca ptr, align 8
  %8 = alloca ptr, align 8
  %9 = alloca ptr, align 8
  %10 = alloca ptr, align 8
  store ptr %0, ptr %6, align 8, !tbaa !37
  store ptr %1, ptr %7, align 8, !tbaa !38
  store ptr %2, ptr %8, align 8, !tbaa !9
  store ptr %3, ptr %9, align 8, !tbaa !9
  store ptr %4, ptr %10, align 8, !tbaa !9
  %11 = load ptr, ptr %7, align 8, !tbaa !38
  %12 = load ptr, ptr %8, align 8, !tbaa !9
  call void (ptr, ptr, ...) @strbuf_addf(ptr noundef %11, ptr noundef @.str, ptr noundef %12)
  %13 = load ptr, ptr %10, align 8, !tbaa !9
  %14 = icmp ne ptr %13, null
  br i1 %14, label %15, label %21

15:                                               ; preds = %5
  %16 = load ptr, ptr %7, align 8, !tbaa !38
  %17 = load ptr, ptr %9, align 8, !tbaa !9
  %18 = load ptr, ptr %6, align 8, !tbaa !37
  %19 = call ptr @hash_to_hex_algop(ptr noundef %17, ptr noundef %18)
  %20 = load ptr, ptr %10, align 8, !tbaa !9
  call void (ptr, ptr, ...) @strbuf_addf(ptr noundef %16, ptr noundef @.str.1, ptr noundef %19, ptr noundef %20)
  br label %21

21:                                               ; preds = %15, %5
  ret void
}