; Function Attrs: nounwind uwtable
define dso_local void @get_midx_filename_ext(ptr noundef %0, ptr noundef %1, ptr noundef %2, ptr noundef %3, ptr noundef %4) local_unnamed_addr #1 {
  tail call void (ptr, ptr, ...) @strbuf_addf(ptr noundef %1, ptr noundef nonnull @.str, ptr noundef %2) #22
  %.not = icmp eq ptr %4, null
  br i1 %.not, label %8, label %6

6:                                                ; preds = %5
  %7 = tail call ptr @hash_to_hex_algop(ptr noundef %3, ptr noundef %0) #22
  tail call void (ptr, ptr, ...) @strbuf_addf(ptr noundef %1, ptr noundef nonnull @.str.1, ptr noundef %7, ptr noundef nonnull %4) #22
  br label %8

8:                                                ; preds = %6, %5
  ret void
}